target datalayout = "e-m:e-p270:32:32-p271:32:32-p272:64:64-i64:64-i128:128-f80:128-n8:16:32:64-S128"
target triple = "x86_64-pc-linux-gnu"

%struct.dt_lib_module_t = type { %struct.dt_action_t, ptr, ptr, ptr, ptr, ptr, ptr, ptr, ptr, ptr, ptr, ptr, ptr, ptr, ptr, ptr, ptr, ptr, ptr, ptr, ptr, ptr, ptr, ptr, ptr, ptr, ptr, ptr, ptr, ptr, ptr, [128 x i8], ptr, ptr, i32, ptr, ptr, ptr, i32 }
%struct.dt_action_t = type { i32, ptr, ptr, ptr, ptr, ptr }
%struct.dt_lib_tagging_t = type { [1024 x i8], ptr, ptr, ptr, ptr, ptr, ptr, ptr, ptr, ptr, ptr, ptr, ptr, ptr, ptr, ptr, ptr, ptr, ptr, ptr, ptr, ptr, i32, i32, i32, i32, i32, ptr, ptr, %struct.anon, i32 }
%struct.anon = type { ptr, ptr, ptr, i32, i32, i32, i32, i32 }

; Function Attrs: nounwind uwtable
define internal void @_event_dnd_end(ptr noundef %0, ptr noundef %1, ptr noundef %2) #0 {
  %4 = alloca ptr, align 8
  %5 = alloca ptr, align 8
  %6 = alloca ptr, align 8
  %7 = alloca ptr, align 8
  %8 = alloca ptr, align 8
  store ptr %0, ptr %4, align 8, !tbaa !108
  store ptr %1, ptr %5, align 8, !tbaa !169
  store ptr %2, ptr %6, align 8, !tbaa !6
  call void @llvm.lifetime.start.p0(i64 8, ptr %7) #11
  %9 = load ptr, ptr %6, align 8, !tbaa !6
  %10 = getelementptr inbounds nuw %struct.dt_lib_module_t, ptr %9, i32 0, i32 30
  %11 = load ptr, ptr %10, align 8, !tbaa !11
  store ptr %11, ptr %7, align 8, !tbaa !19
  call void @llvm.lifetime.start.p0(i64 8, ptr %8) #11
  %12 = load ptr, ptr %7, align 8, !tbaa !19
  %13 = getelementptr inbounds nuw %struct.dt_lib_tagging_t, ptr %12, i32 0, i32 4
  %14 = load ptr, ptr %13, align 8, !tbaa !40
  %15 = call ptr @gtk_tree_view_get_selection(ptr noundef %14)
  store ptr %15, ptr %8, align 8, !tbaa !59
  %16 = load ptr, ptr %8, align 8, !tbaa !59
  call void @gtk_tree_selection_unselect_all(ptr noundef %16)
  %17 = load ptr, ptr %7, align 8, !tbaa !19
  %18 = getelementptr inbounds nuw %struct.dt_lib_tagging_t, ptr %17, i32 0, i32 29
  %19 = getelementptr inbounds nuw %struct.anon, ptr %18, i32 0, i32 4
  %20 = load i32, ptr %19, align 4, !tbaa !125
  %21 = icmp ne i32 %20, 0
  br i1 %21, label %22, label %28

22:                                               ; preds = %3
  %23 = load ptr, ptr %7, align 8, !tbaa !19
  %24 = getelementptr inbounds nuw %struct.dt_lib_tagging_t, ptr %23, i32 0, i32 29
  %25 = getelementptr inbounds nuw %struct.anon, ptr %24, i32 0, i32 4
  %26 = load i32, ptr %25, align 4, !tbaa !125
  %27 = call i32 @g_source_remove(i32 noundef %26)
  br label %28

28:                                               ; preds = %22, %3
  %29 = load ptr, ptr %7, align 8, !tbaa !19
  %30 = getelementptr inbounds nuw %struct.dt_lib_tagging_t, ptr %29, i32 0, i32 29
  %31 = getelementptr inbounds nuw %struct.anon, ptr %30, i32 0, i32 4
  store i32 0, ptr %31, align 4, !tbaa !125
  %32 = load ptr, ptr %7, align 8, !tbaa !19
  %33 = getelementptr inbounds nuw %struct.dt_lib_tagging_t, ptr %32, i32 0, i32 29
  %34 = getelementptr inbounds nuw %struct.anon, ptr %33, i32 0, i32 7
  store i32 0, ptr %34, align 8, !tbaa !128
  %35 = load ptr, ptr %6, align 8, !tbaa !6
  call void @_dnd_clear_root(ptr noundef %35)
  call void @llvm.lifetime.end.p0(i64 8, ptr %8) #11
  call void @llvm.lifetime.end.p0(i64 8, ptr %7) #11
  ret void
}