; Function Attrs: nounwind uwtable
define internal void @_event_dnd_end(ptr readnone captures(none) %0, ptr readnone captures(none) %1, ptr noundef readonly captures(none) %2) #1 {
  %4 = getelementptr inbounds nuw i8, ptr %2, i64 280
  %5 = load ptr, ptr %4, align 8, !tbaa !6
  %6 = getelementptr inbounds nuw i8, ptr %5, i64 1048
  %7 = load ptr, ptr %6, align 8, !tbaa !27
  %8 = tail call ptr @gtk_tree_view_get_selection(ptr noundef %7) #16
  tail call void @gtk_tree_selection_unselect_all(ptr noundef %8) #16
  %9 = getelementptr inbounds nuw i8, ptr %5, i64 1260
  %10 = load i32, ptr %9, align 4, !tbaa !104
  %.not = icmp eq i32 %10, 0
  br i1 %.not, label %13, label %11

11:                                               ; preds = %3
  %12 = tail call i32 @g_source_remove(i32 noundef %10) #16
  br label %13

13:                                               ; preds = %11, %3
  store i32 0, ptr %9, align 4, !tbaa !104
  %14 = getelementptr inbounds nuw i8, ptr %5, i64 1272
  store i32 0, ptr %14, align 8, !tbaa !107
  %.val = load ptr, ptr %4, align 8, !tbaa !6
  tail call fastcc void @_dnd_clear_root(ptr %.val)
  ret void
}